; Function Attrs: nounwind uwtable
define hidden zeroext i1 @SDL_WaitForGPUFences_REAL(ptr noundef readonly captures(address_is_null) %0, i1 noundef zeroext %1, ptr noundef %2, i32 noundef %3) local_unnamed_addr #0 {
  %5 = icmp eq ptr %0, null
  br i1 %5, label %6, label %8

6:                                                ; preds = %4
  %7 = tail call zeroext i1 (ptr, ...) @SDL_SetError_REAL(ptr noundef nonnull @.str.3) #7
  br label %19

8:                                                ; preds = %4
  %9 = icmp eq ptr %2, null
  %10 = icmp ne i32 %3, 0
  %or.cond = and i1 %9, %10
  br i1 %or.cond, label %11, label %13

11:                                               ; preds = %8
  %12 = tail call zeroext i1 (ptr, ...) @SDL_SetError_REAL(ptr noundef nonnull @.str.4, ptr noundef nonnull @.str.372) #7
  br label %19

13:                                               ; preds = %8
  %14 = getelementptr inbounds nuw i8, ptr %0, i64 624
  %15 = load ptr, ptr %14, align 8
  %16 = getelementptr inbounds nuw i8, ptr %0, i64 664
  %17 = load ptr, ptr %16, align 8
  %18 = tail call zeroext i1 %15(ptr noundef %17, i1 noundef zeroext %1, ptr noundef %2, i32 noundef %3) #7
  br label %19

19:                                               ; preds = %13, %11, %6
  %.0 = phi i1 [ false, %6 ], [ false, %11 ], [ %18, %13 ]
  ret i1 %.0
}